target datalayout = "e-m:e-p270:32:32-p271:32:32-p272:64:64-i64:64-i128:128-f80:128-n8:16:32:64-S128"
target triple = "x86_64-pc-linux-gnu"

%struct.RBasic = type { i64, i64 }
%struct.rb_callcache = type { i64, i64, ptr, ptr, %union.anon.31 }
%union.anon.31 = type { %struct.anon.32 }
%struct.anon.32 = type { i64 }

; Function Attrs: inlinehint nounwind sspstrong willreturn memory(none) uwtable
define internal zeroext i1 @RB_IMMEDIATE_P(i64 noundef %0) #7 {
  %2 = alloca i64, align 8
  store i64 %0, ptr %2, align 8, !tbaa !17
  %3 = load i64, ptr %2, align 8, !tbaa !17
  %4 = and i64 %3, 7
  %5 = icmp ne i64 %4, 0
  ret i1 %5
}

; Function Attrs: inlinehint nounwind sspstrong willreturn memory(none) uwtable
define internal zeroext i1 @RB_SPECIAL_CONST_P(i64 noundef %0) #7 {
  %2 = alloca i64, align 8
  store i64 %0, ptr %2, align 8, !tbaa !17
  %3 = load i64, ptr %2, align 8, !tbaa !17
  %4 = icmp eq i64 %3, 0
  br i1 %4, label %8, label %5

5:                                                ; preds = %1
  %6 = load i64, ptr %2, align 8, !tbaa !17
  %7 = call zeroext i1 @RB_IMMEDIATE_P(i64 noundef %6) #28
  br label %8

8:                                                ; preds = %5, %1
  %9 = phi i1 [ true, %1 ], [ %7, %5 ]
  ret i1 %9
}

; Function Attrs: inlinehint nounwind sspstrong uwtable
define internal zeroext i1 @vm_cc_ivar_p(ptr noundef %0) #5 {
  %2 = alloca ptr, align 8
  store ptr %0, ptr %2, align 8, !tbaa !122
  %3 = load ptr, ptr %2, align 8, !tbaa !122
  %4 = getelementptr inbounds nuw %struct.rb_callcache, ptr %3, i32 0, i32 0
  %5 = load i64, ptr %4, align 8, !tbaa !409
  %6 = and i64 %5, 65536
  %7 = icmp ne i64 %6, 0
  ret i1 %7
}

; Function Attrs: inlinehint nounwind sspstrong uwtable
define internal i32 @imemo_type_p(i64 noundef %0, i32 noundef %1) #5 {
  %3 = alloca i32, align 4
  %4 = alloca i64, align 8
  %5 = alloca i32, align 4
  %6 = alloca i64, align 8
  %7 = alloca i64, align 8
  store i64 %0, ptr %4, align 8, !tbaa !17
  store i32 %1, ptr %5, align 4, !tbaa !56
  %8 = load i64, ptr %4, align 8, !tbaa !17
  %9 = call zeroext i1 @RB_SPECIAL_CONST_P(i64 noundef %8) #28
  %10 = xor i1 %9, true
  %11 = xor i1 %10, true
  %12 = xor i1 %11, true
  %13 = zext i1 %12 to i32
  %14 = sext i32 %13 to i64
  %15 = call i64 @llvm.expect.i64(i64 %14, i64 1)
  %16 = icmp ne i64 %15, 0
  br i1 %16, label %17, label %30

17:                                               ; preds = %2
  call void @llvm.lifetime.start.p0(i64 8, ptr %6) #24
  store i64 61471, ptr %6, align 8, !tbaa !17
  call void @llvm.lifetime.start.p0(i64 8, ptr %7) #24
  %18 = load i32, ptr %5, align 4, !tbaa !56
  %19 = shl i32 %18, 12
  %20 = or i32 %19, 26
  %21 = zext i32 %20 to i64
  store i64 %21, ptr %7, align 8, !tbaa !17
  %22 = load i64, ptr %7, align 8, !tbaa !17
  %23 = load i64, ptr %4, align 8, !tbaa !17
  %24 = inttoptr i64 %23 to ptr
  %25 = getelementptr inbounds nuw %struct.RBasic, ptr %24, i32 0, i32 0
  %26 = load i64, ptr %25, align 8, !tbaa !70
  %27 = and i64 %26, 61471
  %28 = icmp eq i64 %22, %27
  %29 = zext i1 %28 to i32
  store i32 %29, ptr %3, align 4
  call void @llvm.lifetime.end.p0(i64 8, ptr %7) #24
  call void @llvm.lifetime.end.p0(i64 8, ptr %6) #24
  br label %31

30:                                               ; preds = %2
  store i32 0, ptr %3, align 4
  br label %31

31:                                               ; preds = %30, %17
  %32 = load i32, ptr %3, align 4
  ret i32 %32
}

; Function Attrs: nounwind sspstrong uwtable
define internal zeroext i1 @clear_attr_cc(i64 noundef %0) #0 {
  %2 = alloca i1, align 1
  %3 = alloca i64, align 8
  store i64 %0, ptr %3, align 8, !tbaa !17
  %4 = load i64, ptr %3, align 8, !tbaa !17
  %5 = call i32 @imemo_type_p(i64 noundef %4, i32 noundef 12)
  %6 = icmp ne i32 %5, 0
  br i1 %6, label %7, label %14

7:                                                ; preds = %1
  %8 = load i64, ptr %3, align 8, !tbaa !17
  %9 = inttoptr i64 %8 to ptr
  %10 = call zeroext i1 @vm_cc_ivar_p(ptr noundef %9)
  br i1 %10, label %11, label %14

11:                                               ; preds = %7
  %12 = load i64, ptr %3, align 8, !tbaa !17
  %13 = inttoptr i64 %12 to ptr
  call void @rb_vm_cc_general(ptr noundef %13)
  store i1 true, ptr %2, align 1
  br label %15

14:                                               ; preds = %7, %1
  store i1 false, ptr %2, align 1
  br label %15

15:                                               ; preds = %14, %11
  %16 = load i1, ptr %2, align 1
  ret i1 %16
}

; Function Attrs: nounwind sspstrong uwtable
define internal i32 @clear_attr_ccs_i(ptr noundef %0, ptr noundef %1, i64 noundef %2, ptr noundef %3) #0 {
  %5 = alloca ptr, align 8
  %6 = alloca ptr, align 8
  %7 = alloca i64, align 8
  %8 = alloca ptr, align 8
  %9 = alloca i64, align 8
  %10 = alloca ptr, align 8
  store ptr %0, ptr %5, align 8, !tbaa !104
  store ptr %1, ptr %6, align 8, !tbaa !104
  store i64 %2, ptr %7, align 8, !tbaa !17
  store ptr %3, ptr %8, align 8, !tbaa !104
  call void @llvm.lifetime.start.p0(i64 8, ptr %9) #24
  %11 = load ptr, ptr %5, align 8, !tbaa !104
  %12 = ptrtoint ptr %11 to i64
  store i64 %12, ptr %9, align 8, !tbaa !17
  br label %13

13:                                               ; preds = %24, %4
  %14 = load i64, ptr %9, align 8, !tbaa !17
  %15 = load ptr, ptr %6, align 8, !tbaa !104
  %16 = ptrtoint ptr %15 to i64
  %17 = icmp ne i64 %14, %16
  br i1 %17, label %18, label %28

18:                                               ; preds = %13
  call void @llvm.lifetime.start.p0(i64 8, ptr %10) #24
  %19 = load i64, ptr %9, align 8, !tbaa !17
  %20 = call ptr @rb_asan_poisoned_object_p(i64 noundef %19)
  store ptr %20, ptr %10, align 8, !tbaa !104
  %21 = load i64, ptr %9, align 8, !tbaa !17
  call void @rb_asan_unpoison_object(i64 noundef %21, i1 noundef zeroext false)
  %22 = load i64, ptr %9, align 8, !tbaa !17
  %23 = call zeroext i1 @clear_attr_cc(i64 noundef %22)
  call void @llvm.lifetime.end.p0(i64 8, ptr %10) #24
  br label %24

24:                                               ; preds = %18
  %25 = load i64, ptr %7, align 8, !tbaa !17
  %26 = load i64, ptr %9, align 8, !tbaa !17
  %27 = add i64 %26, %25
  store i64 %27, ptr %9, align 8, !tbaa !17
  br label %13, !llvm.loop !351

28:                                               ; preds = %13
  call void @llvm.lifetime.end.p0(i64 8, ptr %9) #24
  ret i32 0
}