; Function Attrs: nounwind sspstrong uwtable
define internal noundef i32 @clear_attr_ccs_i(ptr noundef %0, ptr noundef %1, i64 noundef %2, ptr readnone captures(none) %3) #0 {
  %5 = ptrtoint ptr %1 to i64
  %.not7 = icmp eq ptr %0, %1
  br i1 %.not7, label %._crit_edge, label %.lr.ph.preheader

.lr.ph.preheader:                                 ; preds = %4
  %6 = ptrtoint ptr %0 to i64
  br label %.lr.ph

.lr.ph:                                           ; preds = %.lr.ph.preheader, %clear_attr_cc.exit
  %.08 = phi i64 [ %16, %clear_attr_cc.exit ], [ %6, %.lr.ph.preheader ]
  %7 = tail call ptr @rb_asan_poisoned_object_p(i64 noundef %.08) #20
  tail call void @rb_asan_unpoison_object(i64 noundef %.08, i1 noundef zeroext false) #20
  %8 = icmp eq i64 %.08, 0
  %9 = and i64 %.08, 7
  %10 = icmp ne i64 %9, 0
  %11 = or i1 %8, %10
  br i1 %11, label %clear_attr_cc.exit, label %imemo_type_p.exit.i, !prof !93

imemo_type_p.exit.i:                              ; preds = %.lr.ph
  %12 = inttoptr i64 %.08 to ptr
  %13 = load i64, ptr %12, align 8, !tbaa !74
  %14 = and i64 %13, 127007
  %or.cond.not.i = icmp eq i64 %14, 114714
  br i1 %or.cond.not.i, label %15, label %clear_attr_cc.exit

15:                                               ; preds = %imemo_type_p.exit.i
  tail call void @rb_vm_cc_general(ptr noundef nonnull %12) #20
  br label %clear_attr_cc.exit

clear_attr_cc.exit:                               ; preds = %.lr.ph, %imemo_type_p.exit.i, %15
  %16 = add i64 %.08, %2
  %.not = icmp eq i64 %16, %5
  br i1 %.not, label %._crit_edge, label %.lr.ph, !llvm.loop !347

._crit_edge:                                      ; preds = %clear_attr_cc.exit, %4
  ret i32 0
}